target datalayout = "e-m:e-p270:32:32-p271:32:32-p272:64:64-i64:64-i128:128-f80:128-n8:16:32:64-S128"
target triple = "x86_64-pc-linux-gnu"

%struct.slurm_conf_t = type { i64, ptr, i16, ptr, ptr, ptr, ptr, ptr, i16, ptr, ptr, ptr, ptr, ptr, ptr, ptr, i16, ptr, ptr, ptr, ptr, i16, ptr, ptr, ptr, i64, ptr, ptr, ptr, ptr, i16, ptr, ptr, i16, i32, ptr, i32, ptr, i32, i32, ptr, ptr, i64, i64, ptr, i16, i16, ptr, i32, i32, ptr, i32, ptr, i32, i16, i16, i16, ptr, i16, i16, ptr, ptr, i32, i16, i16, ptr, i32, i16, ptr, ptr, ptr, ptr, i16, ptr, ptr, ptr, ptr, i32, ptr, ptr, ptr, ptr, i16, i16, ptr, i32, i32, i32, i16, i16, ptr, ptr, i16, ptr, ptr, i32, i32, i32, i32, i32, i64, i32, i32, i16, ptr, ptr, i32, ptr, ptr, ptr, i16, i32, ptr, ptr, i16, ptr, ptr, i32, i16, ptr, ptr, ptr, ptr, i32, i32, i16, i16, i32, ptr, i16, ptr, i32, i32, i32, i32, i32, i32, ptr, i16, ptr, ptr, i32, i16, ptr, i32, i16, i16, ptr, ptr, ptr, i16, ptr, ptr, ptr, ptr, i16, i16, ptr, i16, ptr, i16, ptr, i16, ptr, i16, ptr, ptr, ptr, ptr, i16, ptr, ptr, ptr, i32, ptr, i32, ptr, ptr, i16, ptr, ptr, i32, i16, ptr, ptr, i16, i16, ptr, i16, ptr, ptr, ptr, i32, ptr, i16, i16, ptr, ptr, ptr, ptr, ptr, ptr, ptr, ptr, i16, i32, i16, ptr, ptr, ptr, ptr, i32, ptr, ptr, ptr, i16, ptr, ptr, ptr, i16, ptr, i16, ptr, i16, i16, ptr }

@slurm_conf = external global %struct.slurm_conf_t, align 8
@.str.20 = private unnamed_addr constant [21 x i8] c"NET: %s: stub called\00", align 1
@__func__._on_chunk_header = private unnamed_addr constant [17 x i8] c"_on_chunk_header\00", align 1

; Function Attrs: nounwind uwtable
define internal i32 @_on_chunk_header(ptr noundef %0) #0 {
  %2 = alloca ptr, align 8
  store ptr %0, ptr %2, align 8
  br label %3

3:                                                ; preds = %1
  %4 = load i64, ptr getelementptr inbounds nuw (%struct.slurm_conf_t, ptr @slurm_conf, i32 0, i32 42), align 8
  %5 = and i64 %4, 1024
  %6 = icmp ne i64 %5, 0
  br i1 %6, label %7, label %14

7:                                                ; preds = %3
  br label %8

8:                                                ; preds = %7
  %9 = call i32 @get_log_level()
  %10 = icmp sge i32 %9, 4
  br i1 %10, label %11, label %12

11:                                               ; preds = %8
  call void (i32, ptr, ...) @log_var(i32 noundef 4, ptr noundef @.str.20, ptr noundef @__func__._on_chunk_header)
  br label %12

12:                                               ; preds = %11, %8
  br label %13

13:                                               ; preds = %12
  br label %14

14:                                               ; preds = %13, %3
  br label %15

15:                                               ; preds = %14
  ret i32 0
}